target datalayout = "e-m:e-p270:32:32-p271:32:32-p272:64:64-i64:64-i128:128-f80:128-n8:16:32:64-S128"
target triple = "x86_64-pc-linux-gnu"

%struct.TS_accuracy_st = type { ptr, ptr, ptr }

@.str = private unnamed_addr constant [36 x i8] c"../openssl/crypto/ts/ts_rsp_utils.c\00", align 1
@__func__.TS_ACCURACY_set_millis = private unnamed_addr constant [23 x i8] c"TS_ACCURACY_set_millis\00", align 1

; Function Attrs: nounwind uwtable
define i32 @TS_ACCURACY_set_millis(ptr noundef %0, ptr noundef %1) #0 {
  %3 = alloca i32, align 4
  %4 = alloca ptr, align 8
  %5 = alloca ptr, align 8
  %6 = alloca ptr, align 8
  %7 = alloca i32, align 4
  store ptr %0, ptr %4, align 8, !tbaa !36
  store ptr %1, ptr %5, align 8, !tbaa !33
  call void @llvm.lifetime.start.p0(i64 8, ptr %6) #4
  store ptr null, ptr %6, align 8, !tbaa !33
  %8 = load ptr, ptr %4, align 8, !tbaa !36
  %9 = getelementptr inbounds nuw %struct.TS_accuracy_st, ptr %8, i32 0, i32 1
  %10 = load ptr, ptr %9, align 8, !tbaa !40
  %11 = load ptr, ptr %5, align 8, !tbaa !33
  %12 = icmp eq ptr %10, %11
  br i1 %12, label %13, label %14

13:                                               ; preds = %2
  store i32 1, ptr %3, align 4
  store i32 1, ptr %7, align 4
  br label %31

14:                                               ; preds = %2
  %15 = load ptr, ptr %5, align 8, !tbaa !33
  %16 = icmp ne ptr %15, null
  br i1 %16, label %17, label %24

17:                                               ; preds = %14
  %18 = load ptr, ptr %5, align 8, !tbaa !33
  %19 = call ptr @ASN1_INTEGER_dup(ptr noundef %18)
  store ptr %19, ptr %6, align 8, !tbaa !33
  %20 = load ptr, ptr %6, align 8, !tbaa !33
  %21 = icmp eq ptr %20, null
  br i1 %21, label %22, label %23

22:                                               ; preds = %17
  call void @ERR_new()
  call void @ERR_set_debug(ptr noundef @.str, i32 noundef 203, ptr noundef @__func__.TS_ACCURACY_set_millis)
  call void (i32, i32, ptr, ...) @ERR_set_error(i32 noundef 47, i32 noundef 524301, ptr noundef null)
  store i32 0, ptr %3, align 4
  store i32 1, ptr %7, align 4
  br label %31

23:                                               ; preds = %17
  br label %24

24:                                               ; preds = %23, %14
  %25 = load ptr, ptr %4, align 8, !tbaa !36
  %26 = getelementptr inbounds nuw %struct.TS_accuracy_st, ptr %25, i32 0, i32 1
  %27 = load ptr, ptr %26, align 8, !tbaa !40
  call void @ASN1_INTEGER_free(ptr noundef %27)
  %28 = load ptr, ptr %6, align 8, !tbaa !33
  %29 = load ptr, ptr %4, align 8, !tbaa !36
  %30 = getelementptr inbounds nuw %struct.TS_accuracy_st, ptr %29, i32 0, i32 1
  store ptr %28, ptr %30, align 8, !tbaa !40
  store i32 1, ptr %3, align 4
  store i32 1, ptr %7, align 4
  br label %31

31:                                               ; preds = %24, %22, %13
  call void @llvm.lifetime.end.p0(i64 8, ptr %6) #4
  %32 = load i32, ptr %3, align 4
  ret i32 %32
}