; Function Attrs: nounwind uwtable
define range(i32 0, 2) i32 @TS_ACCURACY_set_millis(ptr noundef captures(none) %0, ptr noundef %1) local_unnamed_addr #0 {
  %3 = getelementptr inbounds nuw i8, ptr %0, i64 8
  %4 = load ptr, ptr %3, align 8, !tbaa !29
  %5 = icmp eq ptr %4, %1
  br i1 %5, label %13, label %6

6:                                                ; preds = %2
  %.not = icmp eq ptr %1, null
  br i1 %.not, label %11, label %7

7:                                                ; preds = %6
  %8 = tail call ptr @ASN1_INTEGER_dup(ptr noundef nonnull %1) #4
  %9 = icmp eq ptr %8, null
  br i1 %9, label %10, label %._crit_edge

._crit_edge:                                      ; preds = %7
  %.pre = load ptr, ptr %3, align 8, !tbaa !29
  br label %11

10:                                               ; preds = %7
  tail call void @ERR_new() #4
  tail call void @ERR_set_debug(ptr noundef nonnull @.str, i32 noundef 203, ptr noundef nonnull @__func__.TS_ACCURACY_set_millis) #4
  tail call void (i32, i32, ptr, ...) @ERR_set_error(i32 noundef 47, i32 noundef 524301, ptr noundef null) #4
  br label %13

11:                                               ; preds = %._crit_edge, %6
  %12 = phi ptr [ %.pre, %._crit_edge ], [ %4, %6 ]
  %.0 = phi ptr [ %8, %._crit_edge ], [ null, %6 ]
  tail call void @ASN1_INTEGER_free(ptr noundef %12) #4
  store ptr %.0, ptr %3, align 8, !tbaa !29
  br label %13

13:                                               ; preds = %2, %11, %10
  %.08 = phi i32 [ 0, %10 ], [ 1, %11 ], [ 1, %2 ]
  ret i32 %.08
}